; Function Attrs: nounwind sspstrong uwtable
define hidden zeroext i1 @rb_obj_is_main_ractor(i64 noundef %0) local_unnamed_addr #0 {
  %2 = tail call i32 @rb_typeddata_is_kind_of(i64 noundef %0, ptr noundef nonnull @ractor_data_type) #19
  %.not.i.not = icmp eq i32 %2, 0
  br i1 %.not.i.not, label %11, label %3

3:                                                ; preds = %1
  %4 = inttoptr i64 %0 to ptr
  %5 = getelementptr inbounds nuw i8, ptr %4, i64 32
  %6 = load ptr, ptr %5, align 8, !tbaa !111
  %7 = load ptr, ptr @ruby_current_vm_ptr, align 8, !tbaa !125
  %8 = getelementptr inbounds nuw i8, ptr %7, i64 32
  %9 = load ptr, ptr %8, align 8, !tbaa !124
  %10 = icmp eq ptr %6, %9
  br label %11

11:                                               ; preds = %1, %3
  %.0 = phi i1 [ %10, %3 ], [ false, %1 ]
  ret i1 %.0
}